target datalayout = "e-m:e-p270:32:32-p271:32:32-p272:64:64-i64:64-i128:128-f80:128-n8:16:32:64-S128"
target triple = "x86_64-pc-linux-gnu"

%struct.X509V3_CONF_METHOD_st = type { ptr, ptr, ptr, ptr }
%struct.v3_ext_ctx = type { i32, ptr, ptr, ptr, ptr, ptr, ptr, ptr }

@.str = private unnamed_addr constant [33 x i8] c"../openssl/crypto/x509/v3_conf.c\00", align 1
@__func__.X509V3_get_section = private unnamed_addr constant [19 x i8] c"X509V3_get_section\00", align 1

; Function Attrs: nounwind uwtable
define ptr @X509V3_get_section(ptr noundef %0, ptr noundef %1) #0 {
  %3 = alloca ptr, align 8
  %4 = alloca ptr, align 8
  %5 = alloca ptr, align 8
  store ptr %0, ptr %4, align 8, !tbaa !8
  store ptr %1, ptr %5, align 8, !tbaa !10
  %6 = load ptr, ptr %4, align 8, !tbaa !8
  %7 = getelementptr inbounds nuw %struct.v3_ext_ctx, ptr %6, i32 0, i32 6
  %8 = load ptr, ptr %7, align 8, !tbaa !40
  %9 = icmp ne ptr %8, null
  br i1 %9, label %10, label %22

10:                                               ; preds = %2
  %11 = load ptr, ptr %4, align 8, !tbaa !8
  %12 = getelementptr inbounds nuw %struct.v3_ext_ctx, ptr %11, i32 0, i32 5
  %13 = load ptr, ptr %12, align 8, !tbaa !47
  %14 = icmp ne ptr %13, null
  br i1 %14, label %15, label %22

15:                                               ; preds = %10
  %16 = load ptr, ptr %4, align 8, !tbaa !8
  %17 = getelementptr inbounds nuw %struct.v3_ext_ctx, ptr %16, i32 0, i32 5
  %18 = load ptr, ptr %17, align 8, !tbaa !47
  %19 = getelementptr inbounds nuw %struct.X509V3_CONF_METHOD_st, ptr %18, i32 0, i32 1
  %20 = load ptr, ptr %19, align 8, !tbaa !68
  %21 = icmp ne ptr %20, null
  br i1 %21, label %23, label %22

22:                                               ; preds = %15, %10, %2
  call void @ERR_new()
  call void @ERR_set_debug(ptr noundef @.str, i32 noundef 413, ptr noundef @__func__.X509V3_get_section)
  call void (i32, i32, ptr, ...) @ERR_set_error(i32 noundef 34, i32 noundef 148, ptr noundef null)
  store ptr null, ptr %3, align 8
  br label %42

23:                                               ; preds = %15
  %24 = load ptr, ptr %4, align 8, !tbaa !8
  %25 = getelementptr inbounds nuw %struct.v3_ext_ctx, ptr %24, i32 0, i32 5
  %26 = load ptr, ptr %25, align 8, !tbaa !47
  %27 = getelementptr inbounds nuw %struct.X509V3_CONF_METHOD_st, ptr %26, i32 0, i32 1
  %28 = load ptr, ptr %27, align 8, !tbaa !68
  %29 = icmp ne ptr %28, null
  br i1 %29, label %30, label %41

30:                                               ; preds = %23
  %31 = load ptr, ptr %4, align 8, !tbaa !8
  %32 = getelementptr inbounds nuw %struct.v3_ext_ctx, ptr %31, i32 0, i32 5
  %33 = load ptr, ptr %32, align 8, !tbaa !47
  %34 = getelementptr inbounds nuw %struct.X509V3_CONF_METHOD_st, ptr %33, i32 0, i32 1
  %35 = load ptr, ptr %34, align 8, !tbaa !68
  %36 = load ptr, ptr %4, align 8, !tbaa !8
  %37 = getelementptr inbounds nuw %struct.v3_ext_ctx, ptr %36, i32 0, i32 6
  %38 = load ptr, ptr %37, align 8, !tbaa !40
  %39 = load ptr, ptr %5, align 8, !tbaa !10
  %40 = call ptr %35(ptr noundef %38, ptr noundef %39)
  store ptr %40, ptr %3, align 8
  br label %42

41:                                               ; preds = %23
  store ptr null, ptr %3, align 8
  br label %42

42:                                               ; preds = %41, %30, %22
  %43 = load ptr, ptr %3, align 8
  ret ptr %43
}