; Function Attrs: nounwind uwtable
define ptr @X509V3_get_section(ptr noundef readonly captures(none) %0, ptr noundef %1) local_unnamed_addr #0 {
  %3 = getelementptr inbounds nuw i8, ptr %0, i64 48
  %4 = load ptr, ptr %3, align 8, !tbaa !22
  %.not = icmp eq ptr %4, null
  br i1 %.not, label %11, label %5

5:                                                ; preds = %2
  %6 = getelementptr inbounds nuw i8, ptr %0, i64 40
  %7 = load ptr, ptr %6, align 8, !tbaa !29
  %.not11 = icmp eq ptr %7, null
  br i1 %.not11, label %11, label %8

8:                                                ; preds = %5
  %9 = getelementptr inbounds nuw i8, ptr %7, i64 8
  %10 = load ptr, ptr %9, align 8, !tbaa !45
  %.not12 = icmp eq ptr %10, null
  br i1 %.not12, label %11, label %12

11:                                               ; preds = %8, %5, %2
  tail call void @ERR_new() #6
  tail call void @ERR_set_debug(ptr noundef nonnull @.str, i32 noundef 413, ptr noundef nonnull @__func__.X509V3_get_section) #6
  tail call void (i32, i32, ptr, ...) @ERR_set_error(i32 noundef 34, i32 noundef 148, ptr noundef null) #6
  br label %14

12:                                               ; preds = %8
  %13 = tail call ptr %10(ptr noundef nonnull %4, ptr noundef %1) #6
  br label %14

14:                                               ; preds = %12, %11
  %.0 = phi ptr [ %13, %12 ], [ null, %11 ]
  ret ptr %.0
}